(dp0
S'dc_e10dd54d1d7996197893e638e27a1dba'
p1
(dp2
I1
(lp3
S'1bdfA01'
p4
aS'E'
p5
aS'r'
p6
asI2
(lp7
g4
aS'Q'
p8
aS'r'
p9
asI3
(lp10
g4
aS'V'
p11
aS'r'
p12
asI4
(lp13
g4
aS'S'
p14
aS'r'
p15
asI5
(lp16
g4
aS'S'
p17
aS'r'
p18
asI6
(lp19
g4
aS'T'
p20
aS'r'
p21
asI7
(lp22
g4
aS'H'
p23
aS'r'
p24
asI8
(lp25
g4
aS'A'
p26
aS'r'
p27
asI9
(lp28
g4
aS'K'
p29
aS'r'
p30
asI10
(lp31
g4
aS'V'
p32
aS'r'
p33
asI11
(lp34
g4
aS'T'
p35
aS'r'
p36
asI12
(lp37
g4
aS'L'
p38
aS'r'
p39
asI13
(lp40
g4
aS'E'
p41
aS'r'
p42
asI14
(lp43
g4
aS'P'
p44
aS'r'
p45
asI15
(lp46
g4
aS'L'
p47
aS'r'
p48
asI16
(lp49
g4
aS'E'
p50
aS'r'
p51
asI17
(lp52
g4
aS'R'
p53
aS'r'
p54
asI18
(lp55
g4
aS'G'
p56
aS'r'
p57
asI19
(lp58
g4
aS'F'
p59
aS'r'
p60
asI20
(lp61
g4
aS'G'
p62
aS'r'
p63
asI21
(lp64
g4
aS'H'
p65
aS'r'
p66
asI22
(lp67
g4
aS'T'
p68
aS'r'
p69
asI23
(lp70
g4
aS'L'
p71
aS'r'
p72
asI24
(lp73
g4
aS'G'
p74
aS'r'
p75
asI25
(lp76
g4
aS'N'
p77
aS'r'
p78
asI26
(lp79
g4
aS'A'
p80
aS'r'
p81
asI27
(lp82
g4
aS'L'
p83
aS'r'
p84
asI28
(lp85
g4
aS'R'
p86
aS'r'
p87
asI29
(lp88
g4
aS'A'
p89
aS'r'
p90
asI30
(lp91
g4
aS'I'
p92
aS'r'
p93
asI31
(lp94
g4
aS'L'
p95
aS'r'
p96
asI32
(lp97
g4
aS'L'
p98
aS'r'
p99
asI33
(lp100
g4
aS'S'
p101
aS'r'
p102
asI34
(lp103
g4
aS'S'
p104
aS'r'
p105
asI35
(lp106
g4
aS'M'
p107
aS'r'
p108
asI36
(lp109
g4
aS'P'
p110
aS'r'
p111
asI37
(lp112
S'1bdfA02'
p113
aS'G'
p114
aS'c'
p115
asI38
(lp116
g113
aS'C'
p117
aS'c'
p118
asI39
(lp119
g113
aS'A'
p120
aS'c'
p121
asI40
(lp122
g113
aS'V'
p123
aS'c'
p124
asI41
(lp125
g113
aS'T'
p126
aS'c'
p127
asI42
(lp128
g113
aS'E'
p129
aS'c'
p130
asI43
(lp131
g113
aS'V'
p132
aS'c'
p133
asI44
(lp134
g113
aS'E'
p135
aS'c'
p136
asI45
(lp137
g113
aS'I'
p138
aS'c'
p139
asI46
(lp140
g113
aS'D'
p141
aS'c'
p142
asI47
(lp143
g113
aS'G'
p144
aS'c'
p145
asI48
(lp146
g113
aS'V'
p147
aS'c'
p148
asI49
(lp149
g113
aS'L'
p150
aS'c'
p151
asI50
(lp152
g113
aS'H'
p153
aS'c'
p154
asI51
(lp155
g113
aS'E'
p156
aS'c'
p157
asI52
(lp158
g113
aS'Y'
p159
aS'c'
p160
asI53
(lp161
g113
aS'S'
p162
aS'c'
p163
asI54
(lp164
g113
aS'T'
p165
aS'c'
p166
asI55
(lp167
g113
aS'K'
p168
aS'c'
p169
asI56
(lp170
g113
aS'E'
p171
aS'c'
p172
asI57
(lp173
g113
aS'G'
p174
aS'c'
p175
asI58
(lp176
g113
aS'V'
p177
aS'c'
p178
asI59
(lp179
g113
aS'Q'
p180
aS'c'
p181
asI60
(lp182
g113
aS'E'
p183
aS'c'
p184
asI61
(lp185
g113
aS'D'
p186
aS'c'
p187
asI62
(lp188
g113
aS'I'
p189
aS'c'
p190
asI63
(lp191
g113
aS'L'
p192
aS'c'
p193
asI64
(lp194
g113
aS'E'
p195
aS'c'
p196
asI65
(lp197
g113
aS'I'
p198
aS'c'
p199
asI66
(lp200
g113
aS'L'
p201
aS'c'
p202
asI67
(lp203
g113
aS'L'
p204
aS'c'
p205
asI68
(lp206
g113
aS'N'
p207
aS'c'
p208
asI69
(lp209
g113
aS'L'
p210
aS'c'
p211
asI70
(lp212
g113
aS'K'
p213
aS'c'
p214
asI71
(lp215
g113
aS'G'
p216
aS'c'
p217
asI72
(lp218
g113
aS'L'
p219
aS'c'
p220
asI73
(lp221
g113
aS'A'
p222
aS'c'
p223
asI74
(lp224
g113
aS'V'
p225
aS'c'
p226
asI75
(lp227
g113
aS'R'
p228
aS'c'
p229
asI76
(lp230
g113
aS'V'
p231
aS'c'
p232
asI77
(lp233
g113
aS'Q'
p234
aS'c'
p235
asI78
(lp236
g113
aS'G'
p237
aS'c'
p238
asI79
(lp239
g113
aS'K'
p240
aS'c'
p241
asI80
(lp242
g113
aS'D'
p243
aS'c'
p244
asI81
(lp245
g113
aS'E'
p246
aS'c'
p247
asI82
(lp248
g113
aS'V'
p249
aS'c'
p250
asI83
(lp251
g113
aS'I'
p252
aS'c'
p253
asI84
(lp254
g113
aS'L'
p255
aS'c'
p256
asI85
(lp257
g113
aS'T'
p258
aS'c'
p259
asI86
(lp260
g113
aS'L'
p261
aS'c'
p262
asI87
(lp263
g113
aS'N'
p264
aS'c'
p265
asI88
(lp266
g113
aS'K'
p267
aS'c'
p268
asI89
(lp269
g113
aS'S'
p270
aS'c'
p271
asI90
(lp272
g113
aS'G'
p273
aS'c'
p274
asI91
(lp275
g113
aS'I'
p276
aS'c'
p277
asI92
(lp278
g113
aS'G'
p279
aS'c'
p280
asI93
(lp281
g113
aS'P'
p282
aS'c'
p283
asI94
(lp284
g113
aS'V'
p285
aS'c'
p286
asI95
(lp287
g113
aS'T'
p288
aS'c'
p289
asI96
(lp290
g113
aS'A'
p291
aS'c'
p292
asI97
(lp293
g113
aS'A'
p294
aS'c'
p295
asI98
(lp296
g113
aS'D'
p297
aS'c'
p298
asI99
(lp299
g113
aS'I'
p300
aS'c'
p301
asI100
(lp302
g113
aS'T'
p303
aS'c'
p304
asI101
(lp305
g113
aS'H'
p306
aS'c'
p307
asI102
(lp308
g113
aS'D'
p309
aS'c'
p310
asI103
(lp311
g113
aS'G'
p312
aS'c'
p313
asI104
(lp314
g113
aS'D'
p315
aS'c'
p316
asI105
(lp317
g113
aS'V'
p318
aS'c'
p319
asI106
(lp320
g113
aS'E'
p321
aS'c'
p322
asI107
(lp323
g113
aS'I'
p324
aS'c'
p325
asI108
(lp326
g113
aS'V'
p327
aS'c'
p328
asI109
(lp329
g113
aS'K'
p330
aS'c'
p331
asI110
(lp332
g113
aS'P'
p333
aS'c'
p334
asI111
(lp335
g113
aS'Q'
p336
aS'c'
p337
asI112
(lp338
g113
aS'H'
p339
aS'c'
p340
asI113
(lp341
g113
aS'V'
p342
aS'c'
p343
asI114
(lp344
g113
aS'I'
p345
aS'c'
p346
asI115
(lp347
g113
aS'C'
p348
aS'c'
p349
asI116
(lp350
g113
aS'H'
p351
aS'c'
p352
asI117
(lp353
g113
aS'L'
p354
aS'c'
p355
asI118
(lp356
g113
aS'T'
p357
aS'c'
p358
asI119
(lp359
g113
aS'D'
p360
aS'c'
p361
asI120
(lp362
g113
aS'E'
p363
aS'c'
p364
asI121
(lp365
g113
aS'N'
p366
aS'c'
p367
asI122
(lp368
g113
aS'A'
p369
aS'c'
p370
asI123
(lp371
g113
aS'S'
p372
aS'c'
p373
asI124
(lp374
g113
aS'I'
p375
aS'c'
p376
asI125
(lp377
g113
aS'S'
p378
aS'c'
p379
asI126
(lp380
g113
aS'M'
p381
aS'c'
p382
asI127
(lp383
g113
aS'R'
p384
aS'c'
p385
asI128
(lp386
g113
aS'I'
p387
aS'c'
p388
asI129
(lp389
g113
aS'K'
p390
aS'c'
p391
asI130
(lp392
g113
aS'V'
p393
aS'c'
p394
asI131
(lp395
g113
aS'Q'
p396
aS'c'
p397
asI132
(lp398
g113
aS'R'
p399
aS'c'
p400
asI133
(lp401
g113
aS'G'
p402
aS'c'
p403
asI134
(lp404
g113
aS'R'
p405
aS'c'
p406
asI135
(lp407
g113
aS'G'
p408
aS'c'
p409
asI136
(lp410
g113
aS'Y'
p411
aS'c'
p412
asI137
(lp413
g113
aS'V'
p414
aS'c'
p415
asI138
(lp416
g113
aS'P'
p417
aS'c'
p418
asI139
(lp419
g113
aS'A'
p420
aS'c'
p421
asI140
(lp422
g113
aS'S'
p423
aS'c'
p424
asI141
(lp425
g113
aS'T'
p426
aS'c'
p427
asI142
(lp428
g113
aS'R'
p429
aS'c'
p430
asI143
(lp431
g113
aS'I'
p432
aS'c'
p433
asI144
(lp434
g113
aS'E'
p435
aS'c'
p436
asI145
(lp437
g113
aS'R'
p438
aS'c'
p439
asI146
(lp440
g113
aS'P'
p441
aS'c'
p442
asI147
(lp443
g113
aS'I'
p444
aS'c'
p445
asI148
(lp446
g113
aS'G'
p447
aS'c'
p448
asI149
(lp449
g113
aS'R'
p450
aS'c'
p451
asI150
(lp452
g113
aS'L'
p453
aS'c'
p454
asI151
(lp455
g113
aS'L'
p456
aS'c'
p457
asI152
(lp458
g113
aS'V'
p459
aS'c'
p460
asI153
(lp461
g113
aS'D'
p462
aS'c'
p463
asI154
(lp464
g113
aS'A'
p465
aS'c'
p466
asI155
(lp467
g113
aS'C'
p468
aS'c'
p469
asI156
(lp470
g113
aS'Y'
p471
aS'c'
p472
asI157
(lp473
S'1bdfA01'
p474
aS'S'
p475
aS'l'
p476
asI158
(lp477
g474
aS'P'
p478
aS'l'
p479
asI159
(lp480
g474
aS'V'
p481
aS'l'
p482
asI160
(lp483
g474
aS'E'
p484
aS'l'
p485
asI161
(lp486
g474
aS'R'
p487
aS'l'
p488
asI162
(lp489
g474
aS'I'
p490
aS'l'
p491
asI163
(lp492
g474
aS'A'
p493
aS'l'
p494
asI164
(lp495
g474
aS'Y'
p496
aS'l'
p497
asI165
(lp498
g474
aS'N'
p499
aS'l'
p500
asI166
(lp501
g474
aS'V'
p502
aS'l'
p503
asI167
(lp504
g474
aS'E'
p505
aS'l'
p506
asI168
(lp507
g474
aS'A'
p508
aS'l'
p509
asI169
(lp510
g474
aS'A'
p511
aS'l'
p512
asI170
(lp513
g474
aS'R'
p514
aS'l'
p515
asI171
(lp516
g474
aS'V'
p517
aS'l'
p518
asI172
(lp519
g474
aS'E'
p520
aS'l'
p521
asI173
(lp522
g474
aS'Q'
p523
aS'l'
p524
asI174
(lp525
g474
aS'R'
p526
aS'l'
p527
asI175
(lp528
g474
aS'T'
p529
aS'l'
p530
asI176
(lp531
g474
aS'D'
p532
aS'l'
p533
asI177
(lp534
g474
aS'L'
p535
aS'l'
p536
asI178
(lp537
g474
aS'D'
p538
aS'l'
p539
asI179
(lp540
g474
aS'K'
p541
aS'l'
p542
asI180
(lp543
g474
aS'L'
p544
aS'l'
p545
asI181
(lp546
g474
aS'V'
p547
aS'l'
p548
asI182
(lp549
g474
aS'I'
p550
aS'l'
p551
asI183
(lp552
g474
aS'E'
p553
aS'l'
p554
asI184
(lp555
g474
aS'M'
p556
aS'l'
p557
asI185
(lp558
g474
aS'E'
p559
aS'l'
p560
asI186
(lp561
g474
aS'T'
p562
aS'l'
p563
asI187
(lp564
g474
aS'N'
p565
aS'l'
p566
asI188
(lp567
g474
aS'G'
p568
aS'l'
p569
asI189
(lp570
g474
aS'T'
p571
aS'l'
p572
asI190
(lp573
g474
aS'I'
p574
aS'l'
p575
asI191
(lp576
g474
aS'D'
p577
aS'l'
p578
asI192
(lp579
g474
aS'P'
p580
aS'l'
p581
asI193
(lp582
g474
aS'E'
p583
aS'l'
p584
asI194
(lp585
g474
aS'E'
p586
aS'l'
p587
asI195
(lp588
g474
aS'A'
p589
aS'l'
p590
asI196
(lp591
g474
aS'I'
p592
aS'l'
p593
asI197
(lp594
g474
aS'R'
p595
aS'l'
p596
asI198
(lp597
g474
aS'R'
p598
aS'l'
p599
asI199
(lp600
g474
aS'A'
p601
aS'l'
p602
asI200
(lp603
g474
aS'A'
p604
aS'l'
p605
asI201
(lp606
g474
aS'T'
p607
aS'l'
p608
asI202
(lp609
g474
aS'I'
p610
aS'l'
p611
asI203
(lp612
g474
aS'L'
p613
aS'l'
p614
asI204
(lp615
g474
aS'A'
p616
aS'l'
p617
asI205
(lp618
g474
aS'E'
p619
aS'l'
p620
asI206
(lp621
g474
aS'Q'
p622
aS'l'
p623
asI207
(lp624
g474
aS'L'
p625
aS'l'
p626
ass.